target datalayout = "e-m:e-p270:32:32-p271:32:32-p272:64:64-i64:64-i128:128-f80:128-n8:16:32:64-S128"
target triple = "x86_64-unknown-linux-gnu"

@.str = private unnamed_addr constant [8 x i8] c"\1B[H\1B[2J\00", align 1
@.str.11 = private unnamed_addr constant [8 x i8] c"Compare\00", align 1

; Function Attrs: nounwind uwtable
define dso_local void @memtest_progress_end() #0 {
entry:
  %call = call i32 (ptr, ...) @printf(ptr noundef @.str)
  ret void
}

; Function Attrs: nounwind uwtable
define dso_local i32 @memtest_compare_times(ptr noundef %m, i64 noundef %bytes, i32 noundef %pass, i32 noundef %times, i32 noundef %interactive) #0 {
entry:
  %m.addr = alloca ptr, align 8
  %bytes.addr = alloca i64, align 8
  %pass.addr = alloca i32, align 4
  %times.addr = alloca i32, align 4
  %interactive.addr = alloca i32, align 4
  %j = alloca i32, align 4
  %errors = alloca i32, align 4
  store ptr %m, ptr %m.addr, align 8
  store i64 %bytes, ptr %bytes.addr, align 8
  store i32 %pass, ptr %pass.addr, align 4
  store i32 %times, ptr %times.addr, align 4
  store i32 %interactive, ptr %interactive.addr, align 4
  store i32 0, ptr %errors, align 4
  store i32 0, ptr %j, align 4
  br label %for.cond

for.cond:                                         ; preds = %for.inc, %entry
  %0 = load i32, ptr %j, align 4
  %1 = load i32, ptr %times.addr, align 4
  %cmp = icmp slt i32 %0, %1
  br i1 %cmp, label %for.body, label %for.end

for.body:                                         ; preds = %for.cond
  %2 = load i32, ptr %interactive.addr, align 4
  %tobool = icmp ne i32 %2, 0
  br i1 %tobool, label %if.then, label %if.end

if.then:                                          ; preds = %for.body
  %3 = load i32, ptr %pass.addr, align 4
  call void @memtest_progress_start(ptr noundef @.str.11, i32 noundef %3)
  br label %if.end

if.end:                                           ; preds = %if.then, %for.body
  %4 = load ptr, ptr %m.addr, align 8
  %5 = load i64, ptr %bytes.addr, align 8
  %6 = load i32, ptr %interactive.addr, align 4
  %call = call i32 @memtest_compare(ptr noundef %4, i64 noundef %5, i32 noundef %6)
  %7 = load i32, ptr %errors, align 4
  %add = add nsw i32 %7, %call
  store i32 %add, ptr %errors, align 4
  %8 = load i32, ptr %interactive.addr, align 4
  %tobool1 = icmp ne i32 %8, 0
  br i1 %tobool1, label %if.then2, label %if.end3

if.then2:                                         ; preds = %if.end
  call void @memtest_progress_end()
  br label %if.end3

if.end3:                                          ; preds = %if.then2, %if.end
  br label %for.inc

for.inc:                                          ; preds = %if.end3
  %9 = load i32, ptr %j, align 4
  %inc = add nsw i32 %9, 1
  store i32 %inc, ptr %j, align 4
  br label %for.cond, !llvm.loop !15

for.end:                                          ; preds = %for.cond
  %10 = load i32, ptr %errors, align 4
  ret i32 %10
}