; Function Attrs: nounwind uwtable
define dso_local i32 @memtest_compare_times(ptr noundef %m, i64 noundef %bytes, i32 noundef %pass, i32 noundef %times, i32 noundef %interactive) local_unnamed_addr #2 {
entry:
  %cmp15 = icmp sgt i32 %times, 0
  br i1 %cmp15, label %for.body.lr.ph, label %for.end

for.body.lr.ph:                                   ; preds = %entry
  %tobool.not = icmp eq i32 %interactive, 0
  %div117.i = lshr i64 %bytes, 4
  %cmp321.not.i = icmp ult i64 %bytes, 16
  %add.ptr.i = getelementptr inbounds i64, ptr %m, i64 %div117.i
  br i1 %tobool.not, label %for.body.lr.ph.split.us, label %for.body

for.body.lr.ph.split.us:                          ; preds = %for.body.lr.ph
  %and.i = and i64 %bytes, 4095
  %cmp.i = icmp eq i64 %and.i, 0
  br i1 %cmp.i, label %for.body.lr.ph.split.us.split, label %cond.false.i

for.body.lr.ph.split.us.split:                    ; preds = %for.body.lr.ph.split.us
  br i1 %cmp321.not.i, label %for.end, label %for.body.us

for.body.us:                                      ; preds = %for.body.lr.ph.split.us.split, %if.end.us
  %errors.017.us = phi i32 [ %add.us, %if.end.us ], [ 0, %for.body.lr.ph.split.us.split ]
  %j.016.us = phi i32 [ %inc.us, %if.end.us ], [ 0, %for.body.lr.ph.split.us.split ]
  br label %for.body.us.i.us

for.body.us.i.us:                                 ; preds = %if.end9.us.i.us, %for.body.us
  %l2.024.us.i.us = phi ptr [ %incdec.ptr10.us.i.us, %if.end9.us.i.us ], [ %add.ptr.i, %for.body.us ]
  %l1.023.us.i.us = phi ptr [ %incdec.ptr.us.i.us, %if.end9.us.i.us ], [ %m, %for.body.us ]
  %w.022.us.i.us = phi i64 [ %inc.us.i.us, %if.end9.us.i.us ], [ 0, %for.body.us ]
  %0 = load i64, ptr %l1.023.us.i.us, align 8
  %1 = load i64, ptr %l2.024.us.i.us, align 8
  %cmp5.not.us.i.us = icmp eq i64 %0, %1
  br i1 %cmp5.not.us.i.us, label %if.end9.us.i.us, label %if.end.us

if.end9.us.i.us:                                  ; preds = %for.body.us.i.us
  %incdec.ptr.us.i.us = getelementptr inbounds i8, ptr %l1.023.us.i.us, i64 8
  %incdec.ptr10.us.i.us = getelementptr inbounds i8, ptr %l2.024.us.i.us, i64 8
  %inc.us.i.us = add nuw nsw i64 %w.022.us.i.us, 1
  %exitcond41.not.i.us = icmp eq i64 %inc.us.i.us, %div117.i
  br i1 %exitcond41.not.i.us, label %if.end.us, label %for.body.us.i.us, !llvm.loop !14

if.end.us:                                        ; preds = %if.end9.us.i.us, %for.body.us.i.us
  %phi.call.us = phi i32 [ 0, %if.end9.us.i.us ], [ 1, %for.body.us.i.us ]
  %add.us = add nuw nsw i32 %phi.call.us, %errors.017.us
  %inc.us = add nuw nsw i32 %j.016.us, 1
  %exitcond21.not = icmp eq i32 %inc.us, %times
  br i1 %exitcond21.not, label %for.end, label %for.body.us, !llvm.loop !15

for.body:                                         ; preds = %for.body.lr.ph, %for.body
  %errors.017 = phi i32 [ %add12, %for.body ], [ 0, %for.body.lr.ph ]
  %j.016 = phi i32 [ %inc, %for.body ], [ 0, %for.body.lr.ph ]
  tail call void @memtest_progress_start(ptr noundef nonnull @.str.11, i32 noundef %pass)
  %call6 = tail call i32 @memtest_compare(ptr noundef %m, i64 noundef %bytes, i32 noundef %interactive), !range !16
  %add12 = add nuw nsw i32 %call6, %errors.017
  %call.i = tail call i32 (ptr, ...) @printf(ptr noundef nonnull dereferenceable(1) @.str)
  %inc = add nuw nsw i32 %j.016, 1
  %exitcond.not = icmp eq i32 %inc, %times
  br i1 %exitcond.not, label %for.end, label %for.body, !llvm.loop !15

cond.false.i:                                     ; preds = %for.body.lr.ph.split.us
  tail call void @_serverAssert(ptr noundef nonnull @.str.8, ptr noundef nonnull @.str.9, i32 noundef 208) #14
  tail call void @abort() #13
  unreachable

for.end:                                          ; preds = %for.body, %if.end.us, %for.body.lr.ph.split.us.split, %entry
  %errors.0.lcssa = phi i32 [ 0, %entry ], [ 0, %for.body.lr.ph.split.us.split ], [ %add.us, %if.end.us ], [ %add12, %for.body ]
  ret i32 %errors.0.lcssa
}